; ModuleID = '39/1107.c'
source_filename = "39/1107.c"
target datalayout = "e-m:e-p270:32:32-p271:32:32-p272:64:64-i64:64-f80:128-n8:16:32:64-S128"
target triple = "x86_64-pc-linux-gnu"

%struct.anon = type { [20 x i8], [2 x i8], [2 x i8], i32, i32, i32, i32 }

@.str = private unnamed_addr constant [3 x i8] c"%d\00", align 1
@.str.1 = private unnamed_addr constant [13 x i8] c"%s%d%d%s%s%d\00", align 1
@.str.2 = private unnamed_addr constant [9 x i8] c"%s\0A%d\0A%d\00", align 1

; Function Attrs: noinline nounwind uwtable
define dso_local i32 @main() #0 {
  %1 = alloca i32, align 4
  %2 = alloca [100 x %struct.anon], align 16
  %3 = alloca %struct.anon, align 4
  %4 = alloca i32, align 4
  %5 = alloca i32, align 4
  %6 = alloca i32, align 4
  %7 = alloca i32, align 4
  store i32 0, i32* %1, align 4
  store i32 0, i32* %7, align 4
  %8 = call i32 (i8*, ...) @__isoc99_scanf(i8* getelementptr inbounds ([3 x i8], [3 x i8]* @.str, i64 0, i64 0), i32* %4)
  store i32 0, i32* %5, align 4
  br label %9

9:                                                ; preds = %148, %0
  %10 = load i32, i32* %5, align 4
  %11 = load i32, i32* %4, align 4
  %12 = icmp slt i32 %10, %11
  br i1 %12, label %13, label %151

13:                                               ; preds = %9
  %14 = load i32, i32* %5, align 4
  %15 = sext i32 %14 to i64
  %16 = getelementptr inbounds [100 x %struct.anon], [100 x %struct.anon]* %2, i64 0, i64 %15
  %17 = getelementptr inbounds %struct.anon, %struct.anon* %16, i32 0, i32 6
  store i32 0, i32* %17, align 4
  %18 = load i32, i32* %5, align 4
  %19 = sext i32 %18 to i64
  %20 = getelementptr inbounds [100 x %struct.anon], [100 x %struct.anon]* %2, i64 0, i64 %19
  %21 = getelementptr inbounds %struct.anon, %struct.anon* %20, i32 0, i32 0
  %22 = getelementptr inbounds [20 x i8], [20 x i8]* %21, i64 0, i64 0
  %23 = load i32, i32* %5, align 4
  %24 = sext i32 %23 to i64
  %25 = getelementptr inbounds [100 x %struct.anon], [100 x %struct.anon]* %2, i64 0, i64 %24
  %26 = getelementptr inbounds %struct.anon, %struct.anon* %25, i32 0, i32 3
  %27 = load i32, i32* %5, align 4
  %28 = sext i32 %27 to i64
  %29 = getelementptr inbounds [100 x %struct.anon], [100 x %struct.anon]* %2, i64 0, i64 %28
  %30 = getelementptr inbounds %struct.anon, %struct.anon* %29, i32 0, i32 4
  %31 = load i32, i32* %5, align 4
  %32 = sext i32 %31 to i64
  %33 = getelementptr inbounds [100 x %struct.anon], [100 x %struct.anon]* %2, i64 0, i64 %32
  %34 = getelementptr inbounds %struct.anon, %struct.anon* %33, i32 0, i32 1
  %35 = getelementptr inbounds [2 x i8], [2 x i8]* %34, i64 0, i64 0
  %36 = load i32, i32* %5, align 4
  %37 = sext i32 %36 to i64
  %38 = getelementptr inbounds [100 x %struct.anon], [100 x %struct.anon]* %2, i64 0, i64 %37
  %39 = getelementptr inbounds %struct.anon, %struct.anon* %38, i32 0, i32 2
  %40 = getelementptr inbounds [2 x i8], [2 x i8]* %39, i64 0, i64 0
  %41 = load i32, i32* %5, align 4
  %42 = sext i32 %41 to i64
  %43 = getelementptr inbounds [100 x %struct.anon], [100 x %struct.anon]* %2, i64 0, i64 %42
  %44 = getelementptr inbounds %struct.anon, %struct.anon* %43, i32 0, i32 5
  %45 = call i32 (i8*, ...) @__isoc99_scanf(i8* getelementptr inbounds ([13 x i8], [13 x i8]* @.str.1, i64 0, i64 0), i8* %22, i32* %26, i32* %30, i8* %35, i8* %40, i32* %44)
  %46 = load i32, i32* %5, align 4
  %47 = sext i32 %46 to i64
  %48 = getelementptr inbounds [100 x %struct.anon], [100 x %struct.anon]* %2, i64 0, i64 %47
  %49 = getelementptr inbounds %struct.anon, %struct.anon* %48, i32 0, i32 3
  %50 = load i32, i32* %49, align 8
  %51 = icmp sgt i32 %50, 80
  br i1 %51, label %52, label %66

52:                                               ; preds = %13
  %53 = load i32, i32* %5, align 4
  %54 = sext i32 %53 to i64
  %55 = getelementptr inbounds [100 x %struct.anon], [100 x %struct.anon]* %2, i64 0, i64 %54
  %56 = getelementptr inbounds %struct.anon, %struct.anon* %55, i32 0, i32 5
  %57 = load i32, i32* %56, align 8
  %58 = icmp sge i32 %57, 1
  br i1 %58, label %59, label %66

59:                                               ; preds = %52
  %60 = load i32, i32* %5, align 4
  %61 = sext i32 %60 to i64
  %62 = getelementptr inbounds [100 x %struct.anon], [100 x %struct.anon]* %2, i64 0, i64 %61
  %63 = getelementptr inbounds %struct.anon, %struct.anon* %62, i32 0, i32 6
  %64 = load i32, i32* %63, align 4
  %65 = add nsw i32 %64, 8000
  store i32 %65, i32* %63, align 4
  br label %66

66:                                               ; preds = %59, %52, %13
  %67 = load i32, i32* %5, align 4
  %68 = sext i32 %67 to i64
  %69 = getelementptr inbounds [100 x %struct.anon], [100 x %struct.anon]* %2, i64 0, i64 %68
  %70 = getelementptr inbounds %struct.anon, %struct.anon* %69, i32 0, i32 3
  %71 = load i32, i32* %70, align 8
  %72 = icmp sgt i32 %71, 85
  br i1 %72, label %73, label %87

73:                                               ; preds = %66
  %74 = load i32, i32* %5, align 4
  %75 = sext i32 %74 to i64
  %76 = getelementptr inbounds [100 x %struct.anon], [100 x %struct.anon]* %2, i64 0, i64 %75
  %77 = getelementptr inbounds %struct.anon, %struct.anon* %76, i32 0, i32 4
  %78 = load i32, i32* %77, align 4
  %79 = icmp sgt i32 %78, 80
  br i1 %79, label %80, label %87

80:                                               ; preds = %73
  %81 = load i32, i32* %5, align 4
  %82 = sext i32 %81 to i64
  %83 = getelementptr inbounds [100 x %struct.anon], [100 x %struct.anon]* %2, i64 0, i64 %82
  %84 = getelementptr inbounds %struct.anon, %struct.anon* %83, i32 0, i32 6
  %85 = load i32, i32* %84, align 4
  %86 = add nsw i32 %85, 4000
  store i32 %86, i32* %84, align 4
  br label %87

87:                                               ; preds = %80, %73, %66
  %88 = load i32, i32* %5, align 4
  %89 = sext i32 %88 to i64
  %90 = getelementptr inbounds [100 x %struct.anon], [100 x %struct.anon]* %2, i64 0, i64 %89
  %91 = getelementptr inbounds %struct.anon, %struct.anon* %90, i32 0, i32 3
  %92 = load i32, i32* %91, align 8
  %93 = icmp sgt i32 %92, 90
  br i1 %93, label %94, label %101

94:                                               ; preds = %87
  %95 = load i32, i32* %5, align 4
  %96 = sext i32 %95 to i64
  %97 = getelementptr inbounds [100 x %struct.anon], [100 x %struct.anon]* %2, i64 0, i64 %96
  %98 = getelementptr inbounds %struct.anon, %struct.anon* %97, i32 0, i32 6
  %99 = load i32, i32* %98, align 4
  %100 = add nsw i32 %99, 2000
  store i32 %100, i32* %98, align 4
  br label %101

101:                                              ; preds = %94, %87
  %102 = load i32, i32* %5, align 4
  %103 = sext i32 %102 to i64
  %104 = getelementptr inbounds [100 x %struct.anon], [100 x %struct.anon]* %2, i64 0, i64 %103
  %105 = getelementptr inbounds %struct.anon, %struct.anon* %104, i32 0, i32 3
  %106 = load i32, i32* %105, align 8
  %107 = icmp sgt i32 %106, 85
  br i1 %107, label %108, label %124

108:                                              ; preds = %101
  %109 = load i32, i32* %5, align 4
  %110 = sext i32 %109 to i64
  %111 = getelementptr inbounds [100 x %struct.anon], [100 x %struct.anon]* %2, i64 0, i64 %110
  %112 = getelementptr inbounds %struct.anon, %struct.anon* %111, i32 0, i32 2
  %113 = getelementptr inbounds [2 x i8], [2 x i8]* %112, i64 0, i64 0
  %114 = load i8, i8* %113, align 2
  %115 = sext i8 %114 to i32
  %116 = icmp eq i32 %115, 89
  br i1 %116, label %117, label %124

117:                                              ; preds = %108
  %118 = load i32, i32* %5, align 4
  %119 = sext i32 %118 to i64
  %120 = getelementptr inbounds [100 x %struct.anon], [100 x %struct.anon]* %2, i64 0, i64 %119
  %121 = getelementptr inbounds %struct.anon, %struct.anon* %120, i32 0, i32 6
  %122 = load i32, i32* %121, align 4
  %123 = add nsw i32 %122, 1000
  store i32 %123, i32* %121, align 4
  br label %124

124:                                              ; preds = %117, %108, %101
  %125 = load i32, i32* %5, align 4
  %126 = sext i32 %125 to i64
  %127 = getelementptr inbounds [100 x %struct.anon], [100 x %struct.anon]* %2, i64 0, i64 %126
  %128 = getelementptr inbounds %struct.anon, %struct.anon* %127, i32 0, i32 4
  %129 = load i32, i32* %128, align 4
  %130 = icmp sgt i32 %129, 80
  br i1 %130, label %131, label %147

131:                                              ; preds = %124
  %132 = load i32, i32* %5, align 4
  %133 = sext i32 %132 to i64
  %134 = getelementptr inbounds [100 x %struct.anon], [100 x %struct.anon]* %2, i64 0, i64 %133
  %135 = getelementptr inbounds %struct.anon, %struct.anon* %134, i32 0, i32 1
  %136 = getelementptr inbounds [2 x i8], [2 x i8]* %135, i64 0, i64 0
  %137 = load i8, i8* %136, align 4
  %138 = sext i8 %137 to i32
  %139 = icmp eq i32 %138, 89
  br i1 %139, label %140, label %147

140:                                              ; preds = %131
  %141 = load i32, i32* %5, align 4
  %142 = sext i32 %141 to i64
  %143 = getelementptr inbounds [100 x %struct.anon], [100 x %struct.anon]* %2, i64 0, i64 %142
  %144 = getelementptr inbounds %struct.anon, %struct.anon* %143, i32 0, i32 6
  %145 = load i32, i32* %144, align 4
  %146 = add nsw i32 %145, 850
  store i32 %146, i32* %144, align 4
  br label %147

147:                                              ; preds = %140, %131, %124
  br label %148

148:                                              ; preds = %147
  %149 = load i32, i32* %5, align 4
  %150 = add nsw i32 %149, 1
  store i32 %150, i32* %5, align 4
  br label %9

151:                                              ; preds = %9
  store i32 0, i32* %5, align 4
  br label %152

152:                                              ; preds = %164, %151
  %153 = load i32, i32* %5, align 4
  %154 = load i32, i32* %4, align 4
  %155 = icmp slt i32 %153, %154
  br i1 %155, label %156, label %167

156:                                              ; preds = %152
  %157 = load i32, i32* %5, align 4
  %158 = sext i32 %157 to i64
  %159 = getelementptr inbounds [100 x %struct.anon], [100 x %struct.anon]* %2, i64 0, i64 %158
  %160 = getelementptr inbounds %struct.anon, %struct.anon* %159, i32 0, i32 6
  %161 = load i32, i32* %160, align 4
  %162 = load i32, i32* %7, align 4
  %163 = add nsw i32 %162, %161
  store i32 %163, i32* %7, align 4
  br label %164

164:                                              ; preds = %156
  %165 = load i32, i32* %5, align 4
  %166 = add nsw i32 %165, 1
  store i32 %166, i32* %5, align 4
  br label %152

167:                                              ; preds = %152
  store i32 0, i32* %5, align 4
  br label %168

168:                                              ; preds = %218, %167
  %169 = load i32, i32* %5, align 4
  %170 = load i32, i32* %4, align 4
  %171 = icmp slt i32 %169, %170
  br i1 %171, label %172, label %221

172:                                              ; preds = %168
  %173 = load i32, i32* %4, align 4
  %174 = sub nsw i32 %173, 1
  store i32 %174, i32* %6, align 4
  br label %175

175:                                              ; preds = %214, %172
  %176 = load i32, i32* %6, align 4
  %177 = load i32, i32* %5, align 4
  %178 = icmp sgt i32 %176, %177
  br i1 %178, label %179, label %217

179:                                              ; preds = %175
  %180 = load i32, i32* %6, align 4
  %181 = sext i32 %180 to i64
  %182 = getelementptr inbounds [100 x %struct.anon], [100 x %struct.anon]* %2, i64 0, i64 %181
  %183 = getelementptr inbounds %struct.anon, %struct.anon* %182, i32 0, i32 6
  %184 = load i32, i32* %183, align 4
  %185 = load i32, i32* %6, align 4
  %186 = sub nsw i32 %185, 1
  %187 = sext i32 %186 to i64
  %188 = getelementptr inbounds [100 x %struct.anon], [100 x %struct.anon]* %2, i64 0, i64 %187
  %189 = getelementptr inbounds %struct.anon, %struct.anon* %188, i32 0, i32 6
  %190 = load i32, i32* %189, align 4
  %191 = icmp sgt i32 %184, %190
  br i1 %191, label %192, label %213

192:                                              ; preds = %179
  %193 = load i32, i32* %6, align 4
  %194 = sext i32 %193 to i64
  %195 = getelementptr inbounds [100 x %struct.anon], [100 x %struct.anon]* %2, i64 0, i64 %194
  %196 = bitcast %struct.anon* %3 to i8*
  %197 = bitcast %struct.anon* %195 to i8*
  call void @llvm.memcpy.p0i8.p0i8.i64(i8* align 4 %196, i8* align 8 %197, i64 40, i1 false)
  %198 = load i32, i32* %6, align 4
  %199 = sext i32 %198 to i64
  %200 = getelementptr inbounds [100 x %struct.anon], [100 x %struct.anon]* %2, i64 0, i64 %199
  %201 = load i32, i32* %6, align 4
  %202 = sub nsw i32 %201, 1
  %203 = sext i32 %202 to i64
  %204 = getelementptr inbounds [100 x %struct.anon], [100 x %struct.anon]* %2, i64 0, i64 %203
  %205 = bitcast %struct.anon* %200 to i8*
  %206 = bitcast %struct.anon* %204 to i8*
  call void @llvm.memcpy.p0i8.p0i8.i64(i8* align 8 %205, i8* align 8 %206, i64 40, i1 false)
  %207 = load i32, i32* %6, align 4
  %208 = sub nsw i32 %207, 1
  %209 = sext i32 %208 to i64
  %210 = getelementptr inbounds [100 x %struct.anon], [100 x %struct.anon]* %2, i64 0, i64 %209
  %211 = bitcast %struct.anon* %210 to i8*
  %212 = bitcast %struct.anon* %3 to i8*
  call void @llvm.memcpy.p0i8.p0i8.i64(i8* align 8 %211, i8* align 4 %212, i64 40, i1 false)
  br label %213

213:                                              ; preds = %192, %179
  br label %214

214:                                              ; preds = %213
  %215 = load i32, i32* %6, align 4
  %216 = add nsw i32 %215, -1
  store i32 %216, i32* %6, align 4
  br label %175

217:                                              ; preds = %175
  br label %218

218:                                              ; preds = %217
  %219 = load i32, i32* %5, align 4
  %220 = add nsw i32 %219, 1
  store i32 %220, i32* %5, align 4
  br label %168

221:                                              ; preds = %168
  %222 = getelementptr inbounds [100 x %struct.anon], [100 x %struct.anon]* %2, i64 0, i64 0
  %223 = getelementptr inbounds %struct.anon, %struct.anon* %222, i32 0, i32 0
  %224 = getelementptr inbounds [20 x i8], [20 x i8]* %223, i64 0, i64 0
  %225 = getelementptr inbounds [100 x %struct.anon], [100 x %struct.anon]* %2, i64 0, i64 0
  %226 = getelementptr inbounds %struct.anon, %struct.anon* %225, i32 0, i32 6
  %227 = load i32, i32* %226, align 4
  %228 = load i32, i32* %7, align 4
  %229 = call i32 (i8*, ...) @printf(i8* getelementptr inbounds ([9 x i8], [9 x i8]* @.str.2, i64 0, i64 0), i8* %224, i32 %227, i32 %228)
  ret i32 0
}

declare dso_local i32 @__isoc99_scanf(i8*, ...) #1

; Function Attrs: argmemonly nounwind willreturn
declare void @llvm.memcpy.p0i8.p0i8.i64(i8* noalias nocapture writeonly, i8* noalias nocapture readonly, i64, i1 immarg) #2

declare dso_local i32 @printf(i8*, ...) #1


!llvm.module.flags = !{!0}
!llvm.ident = !{!1}

!0 = !{i32 1, !"wchar_size", i32 4}
!1 = !{!"clang version 10.0.0-4ubuntu1 "}
